target datalayout = "e-m:e-p270:32:32-p271:32:32-p272:64:64-i64:64-i128:128-f80:128-n8:16:32:64-S128"
target triple = "x86_64-pc-linux-gnu"

%struct.async_fibre_st = type { %struct.ucontext_t, [1 x %struct.__jmp_buf_tag], i32 }
%struct.ucontext_t = type { i64, ptr, %struct.stack_t, %struct.mcontext_t, %struct.__sigset_t, %struct._libc_fpstate, [4 x i64] }
%struct.stack_t = type { ptr, i32, i64 }
%struct.mcontext_t = type { [23 x i64], ptr, [8 x i64] }
%struct.__sigset_t = type { [16 x i64] }
%struct._libc_fpstate = type { i16, i16, i16, i16, i64, i64, i32, i32, [8 x %struct._libc_fpxreg], [16 x %struct._libc_xmmreg], [24 x i32] }
%struct._libc_fpxreg = type { [4 x i16], i16, [3 x i16] }
%struct._libc_xmmreg = type { [4 x i32] }
%struct.__jmp_buf_tag = type { [8 x i64], i32, %struct.__sigset_t }

; Function Attrs: inlinehint nounwind uwtable
define internal i32 @async_fibre_swapcontext(ptr noundef %0, ptr noundef %1, i32 noundef %2) #3 {
  %4 = alloca ptr, align 8
  %5 = alloca ptr, align 8
  %6 = alloca i32, align 4
  store ptr %0, ptr %4, align 8, !tbaa !30
  store ptr %1, ptr %5, align 8, !tbaa !30
  store i32 %2, ptr %6, align 4, !tbaa !32
  %7 = load ptr, ptr %4, align 8, !tbaa !30
  %8 = getelementptr inbounds nuw %struct.async_fibre_st, ptr %7, i32 0, i32 2
  store i32 1, ptr %8, align 8, !tbaa !33
  %9 = load i32, ptr %6, align 4, !tbaa !32
  %10 = icmp ne i32 %9, 0
  br i1 %10, label %11, label %17

11:                                               ; preds = %3
  %12 = load ptr, ptr %4, align 8, !tbaa !30
  %13 = getelementptr inbounds nuw %struct.async_fibre_st, ptr %12, i32 0, i32 1
  %14 = getelementptr inbounds [1 x %struct.__jmp_buf_tag], ptr %13, i64 0, i64 0
  %15 = call i32 @_setjmp(ptr noundef %14) #9
  %16 = icmp ne i32 %15, 0
  br i1 %16, label %31, label %17

17:                                               ; preds = %11, %3
  %18 = load ptr, ptr %5, align 8, !tbaa !30
  %19 = getelementptr inbounds nuw %struct.async_fibre_st, ptr %18, i32 0, i32 2
  %20 = load i32, ptr %19, align 8, !tbaa !33
  %21 = icmp ne i32 %20, 0
  br i1 %21, label %22, label %26

22:                                               ; preds = %17
  %23 = load ptr, ptr %5, align 8, !tbaa !30
  %24 = getelementptr inbounds nuw %struct.async_fibre_st, ptr %23, i32 0, i32 1
  %25 = getelementptr inbounds [1 x %struct.__jmp_buf_tag], ptr %24, i64 0, i64 0
  call void @_longjmp(ptr noundef %25, i32 noundef 1) #10
  unreachable

26:                                               ; preds = %17
  %27 = load ptr, ptr %5, align 8, !tbaa !30
  %28 = getelementptr inbounds nuw %struct.async_fibre_st, ptr %27, i32 0, i32 0
  %29 = call i32 @setcontext(ptr noundef %28) #8
  br label %30

30:                                               ; preds = %26
  br label %31

31:                                               ; preds = %30, %11
  ret i32 1
}