; Function Attrs: inlinehint nounwind uwtable
define internal fastcc void @async_fibre_swapcontext(ptr noundef initializes((1168, 1172)) %0, ptr noundef %1) unnamed_addr #2 {
  %3 = getelementptr inbounds nuw i8, ptr %0, i64 1168
  store i32 1, ptr %3, align 8, !tbaa !27
  %4 = getelementptr inbounds nuw i8, ptr %0, i64 968
  %5 = call i32 @_setjmp(ptr noundef nonnull %4) #9
  %.not = icmp eq i32 %5, 0
  br i1 %.not, label %6, label %13

6:                                                ; preds = %2
  %7 = getelementptr inbounds nuw i8, ptr %1, i64 1168
  %8 = load i32, ptr %7, align 8, !tbaa !27
  %.not5 = icmp eq i32 %8, 0
  br i1 %.not5, label %11, label %9

9:                                                ; preds = %6
  %10 = getelementptr inbounds nuw i8, ptr %1, i64 968
  call void @_longjmp(ptr noundef nonnull %10, i32 noundef 1) #10
  unreachable

11:                                               ; preds = %6
  %12 = call i32 @setcontext(ptr noundef nonnull %1) #8
  br label %13

13:                                               ; preds = %11, %2
  ret void
}